; Function Attrs: mustprogress uwtable
define hidden void @_ZNK11mpn_manager11display_rawERSoPKjj(ptr noundef nonnull readnone align 1 captures(none) dereferenceable(1) %0, ptr noundef nonnull align 8 dereferenceable(8) %1, ptr noundef readonly captures(none) %2, i32 noundef %3) local_unnamed_addr #7 align 2 {
  %5 = tail call noundef nonnull align 8 dereferenceable(8) ptr @_ZSt16__ostream_insertIcSt11char_traitsIcEERSt13basic_ostreamIT_T0_ES6_PKS3_l(ptr noundef nonnull align 8 dereferenceable(8) %1, ptr noundef nonnull @.str.8, i64 noundef 1)
  %.not9 = icmp eq i32 %3, 0
  br i1 %.not9, label %._crit_edge, label %.lr.ph.preheader

.lr.ph.preheader:                                 ; preds = %4
  %6 = zext i32 %3 to i64
  %7 = add nsw i64 %6, -1
  %8 = getelementptr inbounds nuw i32, ptr %2, i64 %7
  %9 = load i32, ptr %8, align 4, !tbaa !3
  %10 = zext i32 %9 to i64
  %11 = tail call noundef nonnull align 8 dereferenceable(8) ptr @_ZNSo9_M_insertImEERSoT_(ptr noundef nonnull align 8 dereferenceable(8) %1, i64 noundef %10)
  %.not8.wide11 = icmp eq i64 %7, 0
  br i1 %.not8.wide11, label %._crit_edge, label %.lr.ph

._crit_edge:                                      ; preds = %.lr.ph, %.lr.ph.preheader, %4
  %12 = tail call noundef nonnull align 8 dereferenceable(8) ptr @_ZSt16__ostream_insertIcSt11char_traitsIcEERSt13basic_ostreamIT_T0_ES6_PKS3_l(ptr noundef nonnull align 8 dereferenceable(8) %1, ptr noundef nonnull @.str.10, i64 noundef 1)
  ret void

.lr.ph:                                           ; preds = %.lr.ph.preheader, %.lr.ph
  %13 = phi i64 [ %15, %.lr.ph ], [ %7, %.lr.ph.preheader ]
  %14 = tail call noundef nonnull align 8 dereferenceable(8) ptr @_ZSt16__ostream_insertIcSt11char_traitsIcEERSt13basic_ostreamIT_T0_ES6_PKS3_l(ptr noundef nonnull align 8 dereferenceable(8) %1, ptr noundef nonnull @.str.9, i64 noundef 1)
  %15 = add nsw i64 %13, -1
  %16 = getelementptr inbounds nuw i32, ptr %2, i64 %15
  %17 = load i32, ptr %16, align 4, !tbaa !3
  %18 = zext i32 %17 to i64
  %19 = tail call noundef nonnull align 8 dereferenceable(8) ptr @_ZNSo9_M_insertImEERSoT_(ptr noundef nonnull align 8 dereferenceable(8) %1, i64 noundef %18)
  %.not8.wide = icmp eq i64 %15, 0
  br i1 %.not8.wide, label %._crit_edge, label %.lr.ph, !llvm.loop !39
}